; Function Attrs: nounwind uwtable
define void @Gia_ManReprFromAigRepr2(ptr noundef readonly captures(none) %0, ptr noundef initializes((192, 200)) %1) local_unnamed_addr #0 {
  %3 = getelementptr i8, ptr %1, i64 24
  %.val27 = load i32, ptr %3, align 8, !tbaa !73
  %4 = sext i32 %.val27 to i64
  %5 = tail call noalias ptr @calloc(i64 noundef %4, i64 noundef 4) #20
  %6 = getelementptr inbounds nuw i8, ptr %1, i64 192
  store ptr %5, ptr %6, align 8, !tbaa !94
  %7 = icmp sgt i32 %.val27, 0
  br i1 %7, label %.lr.ph, label %.preheader

.preheader:                                       ; preds = %.lr.ph, %2
  %8 = getelementptr inbounds nuw i8, ptr %0, i64 32
  %9 = load ptr, ptr %8, align 8, !tbaa !46
  %10 = getelementptr i8, ptr %9, i64 4
  %.val32 = load i32, ptr %10, align 4, !tbaa !48
  %11 = icmp sgt i32 %.val32, 0
  br i1 %11, label %.lr.ph34, label %.critedge

.lr.ph34:                                         ; preds = %.preheader
  %12 = getelementptr inbounds nuw i8, ptr %0, i64 256
  br label %18

.lr.ph:                                           ; preds = %2, %.lr.ph
  %indvars.iv = phi i64 [ %indvars.iv.next, %.lr.ph ], [ 0, %2 ]
  %.val29 = load ptr, ptr %6, align 8, !tbaa !94
  %13 = getelementptr inbounds nuw %struct.Gia_Rpr_t_, ptr %.val29, i64 %indvars.iv
  %14 = load i32, ptr %13, align 4
  %15 = or i32 %14, 268435455
  store i32 %15, ptr %13, align 4
  %indvars.iv.next = add nuw nsw i64 %indvars.iv, 1
  %.val26 = load i32, ptr %3, align 8, !tbaa !73
  %16 = sext i32 %.val26 to i64
  %17 = icmp slt i64 %indvars.iv.next, %16
  br i1 %17, label %.lr.ph, label %.preheader, !llvm.loop !102

18:                                               ; preds = %.lr.ph34, %45
  %19 = phi ptr [ %9, %.lr.ph34 ], [ %46, %45 ]
  %indvars.iv36 = phi i64 [ 0, %.lr.ph34 ], [ %indvars.iv.next37, %45 ]
  %20 = getelementptr i8, ptr %19, i64 8
  %.val24 = load ptr, ptr %20, align 8, !tbaa !59
  %21 = getelementptr inbounds nuw ptr, ptr %.val24, i64 %indvars.iv36
  %22 = load ptr, ptr %21, align 8, !tbaa !60
  %23 = icmp eq ptr %22, null
  br i1 %23, label %45, label %24

24:                                               ; preds = %18
  %25 = getelementptr i8, ptr %22, i64 24
  %.val25 = load i64, ptr %25, align 8
  %26 = and i64 %.val25, 7
  %.not = icmp eq i64 %26, 3
  br i1 %.not, label %45, label %27

27:                                               ; preds = %24
  %28 = load ptr, ptr %12, align 8, !tbaa !100
  %29 = getelementptr inbounds nuw ptr, ptr %28, i64 %indvars.iv36
  %30 = load ptr, ptr %29, align 8, !tbaa !25
  %31 = icmp eq ptr %30, null
  br i1 %31, label %45, label %32

32:                                               ; preds = %27
  %33 = getelementptr inbounds nuw i8, ptr %22, i64 40
  %34 = load i32, ptr %33, align 8, !tbaa !3
  %35 = ashr i32 %34, 1
  %36 = getelementptr inbounds nuw i8, ptr %30, i64 40
  %37 = load i32, ptr %36, align 8, !tbaa !3
  %38 = lshr i32 %37, 1
  %.val28 = load ptr, ptr %6, align 8, !tbaa !94
  %39 = sext i32 %35 to i64
  %40 = getelementptr inbounds %struct.Gia_Rpr_t_, ptr %.val28, i64 %39
  %41 = load i32, ptr %40, align 4
  %42 = and i32 %38, 268435455
  %43 = and i32 %41, -268435456
  %44 = or disjoint i32 %43, %42
  store i32 %44, ptr %40, align 4
  %.pre = load ptr, ptr %8, align 8, !tbaa !46
  br label %45

45:                                               ; preds = %32, %18, %27, %24
  %46 = phi ptr [ %.pre, %32 ], [ %19, %18 ], [ %19, %27 ], [ %19, %24 ]
  %indvars.iv.next37 = add nuw nsw i64 %indvars.iv36, 1
  %47 = getelementptr i8, ptr %46, i64 4
  %.val = load i32, ptr %47, align 4, !tbaa !48
  %48 = sext i32 %.val to i64
  %49 = icmp slt i64 %indvars.iv.next37, %48
  br i1 %49, label %18, label %.critedge, !llvm.loop !103

.critedge:                                        ; preds = %45, %.preheader
  %50 = tail call ptr @Gia_ManDeriveNexts(ptr noundef %1) #17
  %51 = getelementptr inbounds nuw i8, ptr %1, i64 200
  store ptr %50, ptr %51, align 8, !tbaa !26
  ret void
}